target datalayout = "e-m:e-p270:32:32-p271:32:32-p272:64:64-i64:64-i128:128-f80:128-n8:16:32:64-S128"
target triple = "x86_64-pc-linux-gnu"

%struct._zval_struct = type { %union._zend_value, %union.anon.0, %union.anon.3 }
%union._zend_value = type { i64 }
%union.anon.0 = type { i32 }
%union.anon.3 = type { i32 }
%struct._zend_refcounted_h = type { i32, %union.anon }
%union.anon = type { i32 }
%struct._dom_object = type { ptr, ptr, ptr, %struct._zend_object }
%struct._zend_object = type { %struct._zend_refcounted_h, i32, ptr, ptr, ptr, [1 x %struct._zval_struct] }
%struct._dom_nnodemap_object = type { ptr, %struct._zval_struct, i32, i32, ptr, ptr, ptr, %struct.php_libxml_cache_tag, ptr, i32, i8 }
%struct.php_libxml_cache_tag = type { i64 }
%struct._xmlNode = type { ptr, i32, ptr, ptr, ptr, ptr, ptr, ptr, ptr, ptr, ptr, ptr, ptr, ptr, i16, i16 }
%struct._xmlAttr = type { ptr, i32, ptr, ptr, ptr, ptr, ptr, ptr, ptr, ptr, i32, ptr }

; Function Attrs: nounwind uwtable
define hidden i32 @php_dom_get_namednodemap_length(ptr noundef %0) #0 {
  %2 = alloca i32, align 4
  %3 = alloca ptr, align 8
  %4 = alloca ptr, align 8
  %5 = alloca i32, align 4
  %6 = alloca ptr, align 8
  %7 = alloca ptr, align 8
  store ptr %0, ptr %3, align 8
  %8 = load ptr, ptr %3, align 8
  %9 = getelementptr inbounds %struct._dom_object, ptr %8, i32 0, i32 0
  %10 = load ptr, ptr %9, align 8
  store ptr %10, ptr %4, align 8
  %11 = load ptr, ptr %4, align 8
  %12 = icmp ne ptr %11, null
  br i1 %12, label %14, label %13

13:                                               ; preds = %1
  store i32 0, ptr %2, align 4
  br label %68

14:                                               ; preds = %1
  %15 = load ptr, ptr %4, align 8
  %16 = getelementptr inbounds %struct._dom_nnodemap_object, ptr %15, i32 0, i32 2
  %17 = load i32, ptr %16, align 8
  %18 = icmp eq i32 %17, 12
  br i1 %18, label %24, label %19

19:                                               ; preds = %14
  %20 = load ptr, ptr %4, align 8
  %21 = getelementptr inbounds %struct._dom_nnodemap_object, ptr %20, i32 0, i32 2
  %22 = load i32, ptr %21, align 8
  %23 = icmp eq i32 %22, 6
  br i1 %23, label %24, label %37

24:                                               ; preds = %19, %14
  %25 = load ptr, ptr %4, align 8
  %26 = getelementptr inbounds %struct._dom_nnodemap_object, ptr %25, i32 0, i32 4
  %27 = load ptr, ptr %26, align 8
  %28 = icmp ne ptr %27, null
  br i1 %28, label %29, label %34

29:                                               ; preds = %24
  %30 = load ptr, ptr %4, align 8
  %31 = getelementptr inbounds %struct._dom_nnodemap_object, ptr %30, i32 0, i32 4
  %32 = load ptr, ptr %31, align 8
  %33 = call i32 @xmlHashSize(ptr noundef %32)
  br label %35

34:                                               ; preds = %24
  br label %35

35:                                               ; preds = %34, %29
  %36 = phi i32 [ %33, %29 ], [ 0, %34 ]
  store i32 %36, ptr %2, align 4
  br label %68

37:                                               ; preds = %19
  store i32 0, ptr %5, align 4
  %38 = load ptr, ptr %4, align 8
  %39 = getelementptr inbounds %struct._dom_nnodemap_object, ptr %38, i32 0, i32 0
  %40 = load ptr, ptr %39, align 8
  %41 = call ptr @dom_object_get_node(ptr noundef %40)
  store ptr %41, ptr %6, align 8
  %42 = load ptr, ptr %6, align 8
  %43 = icmp ne ptr %42, null
  br i1 %43, label %44, label %66

44:                                               ; preds = %37
  %45 = load ptr, ptr %6, align 8
  %46 = getelementptr inbounds %struct._xmlNode, ptr %45, i32 0, i32 11
  %47 = load ptr, ptr %46, align 8
  store ptr %47, ptr %7, align 8
  %48 = load ptr, ptr %7, align 8
  %49 = icmp ne ptr %48, null
  br i1 %49, label %50, label %65

50:                                               ; preds = %44
  %51 = load i32, ptr %5, align 4
  %52 = add nsw i32 %51, 1
  store i32 %52, ptr %5, align 4
  br label %53

53:                                               ; preds = %58, %50
  %54 = load ptr, ptr %7, align 8
  %55 = getelementptr inbounds %struct._xmlAttr, ptr %54, i32 0, i32 6
  %56 = load ptr, ptr %55, align 8
  %57 = icmp ne ptr %56, null
  br i1 %57, label %58, label %64

58:                                               ; preds = %53
  %59 = load i32, ptr %5, align 4
  %60 = add nsw i32 %59, 1
  store i32 %60, ptr %5, align 4
  %61 = load ptr, ptr %7, align 8
  %62 = getelementptr inbounds %struct._xmlAttr, ptr %61, i32 0, i32 6
  %63 = load ptr, ptr %62, align 8
  store ptr %63, ptr %7, align 8
  br label %53

64:                                               ; preds = %53
  br label %65

65:                                               ; preds = %64, %44
  br label %66

66:                                               ; preds = %65, %37
  %67 = load i32, ptr %5, align 4
  store i32 %67, ptr %2, align 4
  br label %68

68:                                               ; preds = %66, %35, %13
  %69 = load i32, ptr %2, align 4
  ret i32 %69
}

; Function Attrs: nounwind uwtable
define hidden i32 @dom_namednodemap_length_read(ptr noundef %0, ptr noundef %1) #0 {
  %3 = alloca ptr, align 8
  %4 = alloca ptr, align 8
  %5 = alloca ptr, align 8
  store ptr %0, ptr %3, align 8
  store ptr %1, ptr %4, align 8
  br label %6

6:                                                ; preds = %2
  %7 = load ptr, ptr %4, align 8
  store ptr %7, ptr %5, align 8
  %8 = load ptr, ptr %3, align 8
  %9 = call i32 @php_dom_get_namednodemap_length(ptr noundef %8)
  %10 = sext i32 %9 to i64
  %11 = load ptr, ptr %5, align 8
  %12 = getelementptr inbounds %struct._zval_struct, ptr %11, i32 0, i32 0
  store i64 %10, ptr %12, align 8
  %13 = load ptr, ptr %5, align 8
  %14 = getelementptr inbounds %struct._zval_struct, ptr %13, i32 0, i32 1
  store i32 4, ptr %14, align 8
  br label %15

15:                                               ; preds = %6
  ret i32 0
}