; Function Attrs: nounwind uwtable
define hidden noundef i32 @dom_namednodemap_length_read(ptr nocapture noundef readonly %0, ptr nocapture noundef writeonly %1) local_unnamed_addr #0 {
  %3 = load ptr, ptr %0, align 8
  %.not.i = icmp eq ptr %3, null
  br i1 %.not.i, label %php_dom_get_namednodemap_length.exit, label %4

4:                                                ; preds = %2
  %5 = getelementptr inbounds i8, ptr %3, i64 24
  %6 = load i32, ptr %5, align 8
  switch i32 %6, label %12 [
    i32 12, label %7
    i32 6, label %7
  ]

7:                                                ; preds = %4, %4
  %8 = getelementptr inbounds i8, ptr %3, i64 32
  %9 = load ptr, ptr %8, align 8
  %.not26.i = icmp eq ptr %9, null
  br i1 %.not26.i, label %php_dom_get_namednodemap_length.exit, label %10

10:                                               ; preds = %7
  %11 = tail call i32 @xmlHashSize(ptr noundef nonnull %9) #3
  br label %php_dom_get_namednodemap_length.exit

12:                                               ; preds = %4
  %13 = load ptr, ptr %3, align 8
  %14 = tail call ptr @dom_object_get_node(ptr noundef %13) #3
  %.not23.i = icmp eq ptr %14, null
  br i1 %.not23.i, label %php_dom_get_namednodemap_length.exit, label %15

15:                                               ; preds = %12
  %16 = getelementptr inbounds i8, ptr %14, i64 88
  %17 = load ptr, ptr %16, align 8
  %.not24.i = icmp eq ptr %17, null
  br i1 %.not24.i, label %php_dom_get_namednodemap_length.exit, label %.preheader.i

.preheader.i:                                     ; preds = %15, %.preheader.i
  %.016.i = phi i32 [ %20, %.preheader.i ], [ 1, %15 ]
  %.0.i = phi ptr [ %19, %.preheader.i ], [ %17, %15 ]
  %18 = getelementptr inbounds i8, ptr %.0.i, i64 48
  %19 = load ptr, ptr %18, align 8
  %.not25.i = icmp eq ptr %19, null
  %20 = add nuw nsw i32 %.016.i, 1
  br i1 %.not25.i, label %php_dom_get_namednodemap_length.exit, label %.preheader.i

php_dom_get_namednodemap_length.exit:             ; preds = %.preheader.i, %2, %7, %10, %12, %15
  %.015.i = phi i32 [ 0, %2 ], [ %11, %10 ], [ 0, %7 ], [ 0, %15 ], [ 0, %12 ], [ %.016.i, %.preheader.i ]
  %21 = sext i32 %.015.i to i64
  store i64 %21, ptr %1, align 8
  %22 = getelementptr inbounds i8, ptr %1, i64 8
  store i32 4, ptr %22, align 8
  ret i32 0
}